; Function Attrs: nounwind uwtable
define hidden void @luaK_self(ptr noundef captures(none) %0, ptr noundef captures(none) %1, ptr noundef captures(none) %2) local_unnamed_addr #0 {
  %4 = tail call i32 @luaK_exp2anyreg(ptr noundef %0, ptr noundef %1)
  %5 = load i32, ptr %1, align 8, !tbaa !51
  %6 = icmp eq i32 %5, 12
  br i1 %6, label %7, label %freeexp.exit

7:                                                ; preds = %3
  %8 = getelementptr inbounds nuw i8, ptr %1, i64 8
  %9 = load i32, ptr %8, align 8, !tbaa !39
  %10 = and i32 %9, 256
  %.not.i.i = icmp eq i32 %10, 0
  br i1 %.not.i.i, label %11, label %freeexp.exit

11:                                               ; preds = %7
  %12 = getelementptr inbounds nuw i8, ptr %0, i64 74
  %13 = load i8, ptr %12, align 2, !tbaa !18
  %14 = zext i8 %13 to i32
  %.not3.i.i = icmp slt i32 %9, %14
  br i1 %.not3.i.i, label %freeexp.exit, label %15

15:                                               ; preds = %11
  %16 = getelementptr inbounds nuw i8, ptr %0, i64 60
  %17 = load i32, ptr %16, align 4, !tbaa !41
  %18 = add nsw i32 %17, -1
  store i32 %18, ptr %16, align 4, !tbaa !41
  br label %freeexp.exit

freeexp.exit:                                     ; preds = %3, %7, %11, %15
  %19 = getelementptr inbounds nuw i8, ptr %0, i64 60
  %20 = load i32, ptr %19, align 4, !tbaa !41
  %21 = add nsw i32 %20, 2
  %22 = load ptr, ptr %0, align 8, !tbaa !19
  %23 = getelementptr inbounds nuw i8, ptr %22, i64 115
  %24 = load i8, ptr %23, align 1, !tbaa !42
  %25 = zext i8 %24 to i32
  %26 = icmp sgt i32 %21, %25
  br i1 %26, label %27, label %luaK_reserveregs.exit

27:                                               ; preds = %freeexp.exit
  %28 = icmp samesign ugt i32 %21, 249
  br i1 %28, label %29, label %32

29:                                               ; preds = %27
  %30 = getelementptr inbounds nuw i8, ptr %0, i64 24
  %31 = load ptr, ptr %30, align 8, !tbaa !30
  tail call void @luaX_syntaxerror(ptr noundef %31, ptr noundef nonnull @.str) #8
  %.pre.i.i = load ptr, ptr %0, align 8, !tbaa !19
  %.pre.pre.i = load i32, ptr %19, align 4, !tbaa !41
  %.pre5.i = add nsw i32 %.pre.pre.i, 2
  br label %32

32:                                               ; preds = %29, %27
  %.pre4.pre-phi.i = phi i32 [ %.pre5.i, %29 ], [ %21, %27 ]
  %33 = phi ptr [ %.pre.i.i, %29 ], [ %22, %27 ]
  %34 = trunc i32 %21 to i8
  %35 = getelementptr inbounds nuw i8, ptr %33, i64 115
  store i8 %34, ptr %35, align 1, !tbaa !42
  br label %luaK_reserveregs.exit

luaK_reserveregs.exit:                            ; preds = %freeexp.exit, %32
  %.pre-phi.i = phi i32 [ %21, %freeexp.exit ], [ %.pre4.pre-phi.i, %32 ]
  store i32 %.pre-phi.i, ptr %19, align 4, !tbaa !41
  %36 = getelementptr inbounds nuw i8, ptr %1, i64 8
  %37 = load i32, ptr %36, align 8, !tbaa !39
  %38 = tail call i32 @luaK_exp2RK(ptr noundef nonnull %0, ptr noundef %2)
  %39 = shl i32 %20, 6
  %40 = shl i32 %37, 23
  %41 = shl i32 %38, 14
  %42 = or i32 %39, %40
  %43 = or i32 %42, %41
  %44 = or disjoint i32 %43, 11
  %45 = getelementptr inbounds nuw i8, ptr %0, i64 24
  %46 = load ptr, ptr %45, align 8, !tbaa !30
  %47 = getelementptr inbounds nuw i8, ptr %46, i64 8
  %48 = load i32, ptr %47, align 8, !tbaa !31
  %49 = tail call fastcc i32 @luaK_code(ptr noundef nonnull %0, i32 noundef %44, i32 noundef %48)
  %50 = load i32, ptr %2, align 8, !tbaa !51
  %51 = icmp eq i32 %50, 12
  br i1 %51, label %52, label %freeexp.exit17

52:                                               ; preds = %luaK_reserveregs.exit
  %53 = getelementptr inbounds nuw i8, ptr %2, i64 8
  %54 = load i32, ptr %53, align 8, !tbaa !39
  %55 = and i32 %54, 256
  %.not.i.i15 = icmp eq i32 %55, 0
  br i1 %.not.i.i15, label %56, label %freeexp.exit17

56:                                               ; preds = %52
  %57 = getelementptr inbounds nuw i8, ptr %0, i64 74
  %58 = load i8, ptr %57, align 2, !tbaa !18
  %59 = zext i8 %58 to i32
  %.not3.i.i16 = icmp slt i32 %54, %59
  br i1 %.not3.i.i16, label %freeexp.exit17, label %60

60:                                               ; preds = %56
  %61 = load i32, ptr %19, align 4, !tbaa !41
  %62 = add nsw i32 %61, -1
  store i32 %62, ptr %19, align 4, !tbaa !41
  br label %freeexp.exit17

freeexp.exit17:                                   ; preds = %luaK_reserveregs.exit, %52, %56, %60
  store i32 %20, ptr %36, align 8, !tbaa !39
  store i32 12, ptr %1, align 8, !tbaa !51
  ret void
}